; Function Attrs: nounwind uwtable
define hidden void @zif_is_file(ptr noundef %0, ptr nocapture noundef %1) local_unnamed_addr #1 {
  %3 = alloca ptr, align 8
  %4 = getelementptr inbounds i8, ptr %0, i64 44
  %5 = load i32, ptr %4, align 4
  %cond = icmp eq i32 %5, 1
  br i1 %cond, label %7, label %6

6:                                                ; preds = %2
  tail call void @zend_wrong_parameters_count_error(i32 noundef 1, i32 noundef 1) #16
  br label %.thread82

7:                                                ; preds = %2
  %8 = getelementptr inbounds i8, ptr %0, i64 80
  %9 = getelementptr inbounds i8, ptr %0, i64 88
  %10 = load i8, ptr %9, align 8
  %11 = icmp eq i8 %10, 6
  br i1 %11, label %.thread71, label %13

.thread71:                                        ; preds = %7
  %12 = load ptr, ptr %8, align 8
  store ptr %12, ptr %3, align 8
  br label %.thread75

13:                                               ; preds = %7
  %14 = call zeroext i1 @zend_parse_arg_str_slow(ptr noundef nonnull %8, ptr noundef nonnull %3, i32 noundef 1) #16
  %.fr = freeze i1 %14
  br i1 %.fr, label %..thread75_crit_edge, label %.thread82

..thread75_crit_edge:                             ; preds = %13
  %.pre = load ptr, ptr %3, align 8
  br label %.thread75

.thread82:                                        ; preds = %13, %6
  %.091 = phi i32 [ 1, %6 ], [ 9, %13 ]
  %.05290 = phi i32 [ 0, %6 ], [ 1, %13 ]
  %.05389 = phi i32 [ 0, %6 ], [ 4, %13 ]
  %.05488 = phi ptr [ null, %6 ], [ %8, %13 ]
  call void @zend_wrong_parameter_error(i32 noundef %.091, i32 noundef %.05290, ptr noundef null, i32 noundef %.05389, ptr noundef %.05488) #16
  br label %16

.thread75:                                        ; preds = %..thread75_crit_edge, %.thread71
  %15 = phi ptr [ %.pre, %..thread75_crit_edge ], [ %12, %.thread71 ]
  call void @php_stat(ptr noundef %15, i32 noundef 12, ptr noundef %1)
  br label %16

16:                                               ; preds = %.thread75, %.thread82
  ret void
}